target datalayout = "e-m:e-p270:32:32-p271:32:32-p272:64:64-i64:64-i128:128-f80:128-n8:16:32:64-S128"
target triple = "x86_64-pc-linux-gnu"

; Function Attrs: nounwind uwtable
define void @dt_tag_free_result(ptr noundef %0) #0 {
  %2 = alloca ptr, align 8
  store ptr %0, ptr %2, align 8, !tbaa !66
  %3 = load ptr, ptr %2, align 8, !tbaa !66
  %4 = icmp ne ptr %3, null
  br i1 %4, label %5, label %12

5:                                                ; preds = %1
  %6 = load ptr, ptr %2, align 8, !tbaa !66
  %7 = load ptr, ptr %6, align 8, !tbaa !59
  %8 = icmp ne ptr %7, null
  br i1 %8, label %9, label %12

9:                                                ; preds = %5
  %10 = load ptr, ptr %2, align 8, !tbaa !66
  %11 = load ptr, ptr %10, align 8, !tbaa !59
  call void @g_list_free_full(ptr noundef %11, ptr noundef @_free_result_item)
  br label %12

12:                                               ; preds = %9, %5, %1
  ret void
}