; Function Attrs: nounwind uwtable
define void @dt_tag_free_result(ptr noundef readonly %0) local_unnamed_addr #0 {
  %.not = icmp eq ptr %0, null
  br i1 %.not, label %5, label %2

2:                                                ; preds = %1
  %3 = load ptr, ptr %0, align 8, !tbaa !63
  %.not4 = icmp eq ptr %3, null
  br i1 %.not4, label %5, label %4

4:                                                ; preds = %2
  tail call void @g_list_free_full(ptr noundef nonnull %3, ptr noundef nonnull @_free_result_item) #11
  br label %5

5:                                                ; preds = %4, %2, %1
  ret void
}